; ModuleID = '61/279.c'
source_filename = "61/279.c"
target datalayout = "e-m:e-p270:32:32-p271:32:32-p272:64:64-i64:64-f80:128-n8:16:32:64-S128"
target triple = "x86_64-pc-linux-gnu"

@.str = private unnamed_addr constant [3 x i8] c"%d\00", align 1
@.str.1 = private unnamed_addr constant [2 x i8] c"\0A\00", align 1

; Function Attrs: noinline nounwind uwtable
define dso_local i32 @main() #0 {
  %1 = alloca i32, align 4
  %2 = alloca [20 x i32], align 16
  %3 = alloca [20 x i32], align 16
  %4 = alloca i32, align 4
  %5 = alloca i32, align 4
  %6 = alloca i32, align 4
  store i32 0, i32* %1, align 4
  %7 = call i32 (i8*, ...) @__isoc99_scanf(i8* getelementptr inbounds ([3 x i8], [3 x i8]* @.str, i64 0, i64 0), i32* %6)
  %8 = getelementptr inbounds [20 x i32], [20 x i32]* %2, i64 0, i64 1
  store i32 1, i32* %8, align 4
  %9 = getelementptr inbounds [20 x i32], [20 x i32]* %2, i64 0, i64 2
  store i32 1, i32* %9, align 8
  store i32 2, i32* %4, align 4
  br label %10

10:                                               ; preds = %28, %0
  %11 = load i32, i32* %4, align 4
  %12 = icmp sle i32 %11, 20
  br i1 %12, label %13, label %31

13:                                               ; preds = %10
  %14 = load i32, i32* %4, align 4
  %15 = sext i32 %14 to i64
  %16 = getelementptr inbounds [20 x i32], [20 x i32]* %2, i64 0, i64 %15
  %17 = load i32, i32* %16, align 4
  %18 = load i32, i32* %4, align 4
  %19 = sub nsw i32 %18, 1
  %20 = sext i32 %19 to i64
  %21 = getelementptr inbounds [20 x i32], [20 x i32]* %2, i64 0, i64 %20
  %22 = load i32, i32* %21, align 4
  %23 = add nsw i32 %17, %22
  %24 = load i32, i32* %4, align 4
  %25 = add nsw i32 %24, 1
  %26 = sext i32 %25 to i64
  %27 = getelementptr inbounds [20 x i32], [20 x i32]* %2, i64 0, i64 %26
  store i32 %23, i32* %27, align 4
  br label %28

28:                                               ; preds = %13
  %29 = load i32, i32* %4, align 4
  %30 = add nsw i32 %29, 1
  store i32 %30, i32* %4, align 4
  br label %10

31:                                               ; preds = %10
  store i32 1, i32* %4, align 4
  br label %32

32:                                               ; preds = %42, %31
  %33 = load i32, i32* %4, align 4
  %34 = load i32, i32* %6, align 4
  %35 = icmp sle i32 %33, %34
  br i1 %35, label %36, label %45

36:                                               ; preds = %32
  %37 = load i32, i32* %4, align 4
  %38 = sext i32 %37 to i64
  %39 = getelementptr inbounds [20 x i32], [20 x i32]* %3, i64 0, i64 %38
  %40 = call i32 (i8*, ...) @__isoc99_scanf(i8* getelementptr inbounds ([3 x i8], [3 x i8]* @.str, i64 0, i64 0), i32* %39)
  %41 = call i32 (i8*, ...) @printf(i8* getelementptr inbounds ([2 x i8], [2 x i8]* @.str.1, i64 0, i64 0))
  br label %42

42:                                               ; preds = %36
  %43 = load i32, i32* %4, align 4
  %44 = add nsw i32 %43, 1
  store i32 %44, i32* %4, align 4
  br label %32

45:                                               ; preds = %32
  store i32 1, i32* %5, align 4
  br label %46

46:                                               ; preds = %60, %45
  %47 = load i32, i32* %5, align 4
  %48 = load i32, i32* %6, align 4
  %49 = icmp sle i32 %47, %48
  br i1 %49, label %50, label %63

50:                                               ; preds = %46
  %51 = load i32, i32* %5, align 4
  %52 = sext i32 %51 to i64
  %53 = getelementptr inbounds [20 x i32], [20 x i32]* %3, i64 0, i64 %52
  %54 = load i32, i32* %53, align 4
  %55 = sext i32 %54 to i64
  %56 = getelementptr inbounds [20 x i32], [20 x i32]* %2, i64 0, i64 %55
  %57 = load i32, i32* %56, align 4
  %58 = call i32 (i8*, ...) @printf(i8* getelementptr inbounds ([3 x i8], [3 x i8]* @.str, i64 0, i64 0), i32 %57)
  %59 = call i32 (i8*, ...) @printf(i8* getelementptr inbounds ([2 x i8], [2 x i8]* @.str.1, i64 0, i64 0))
  br label %60

60:                                               ; preds = %50
  %61 = load i32, i32* %5, align 4
  %62 = add nsw i32 %61, 1
  store i32 %62, i32* %5, align 4
  br label %46

63:                                               ; preds = %46
  %64 = load i32, i32* %1, align 4
  ret i32 %64
}

declare dso_local i32 @__isoc99_scanf(i8*, ...) #1

declare dso_local i32 @printf(i8*, ...) #1


!llvm.module.flags = !{!0}
!llvm.ident = !{!1}

!0 = !{i32 1, !"wchar_size", i32 4}
!1 = !{!"clang version 10.0.0-4ubuntu1 "}
